; Function Attrs: mustprogress nounwind uwtable
define dso_local void @_ZN4llvm14GCFunctionInfoD2Ev(ptr noundef nonnull readonly align 8 captures(none) dereferenceable(72) %0) unnamed_addr #0 align 2 {
  %2 = getelementptr inbounds nuw i8, ptr %0, i64 48
  %3 = load ptr, ptr %2, align 8
  %4 = getelementptr inbounds nuw i8, ptr %0, i64 56
  %5 = load ptr, ptr %4, align 8
  %.not4.i.i.i.i = icmp eq ptr %3, %5
  br i1 %.not4.i.i.i.i, label %_ZSt8_DestroyIPN4llvm7GCPointES1_EvT_S3_RSaIT0_E.exit.i, label %.lr.ph.i.i.i.i

.lr.ph.i.i.i.i:                                   ; preds = %1, %_ZSt8_DestroyIN4llvm7GCPointEEvPT_.exit.i.i.i.i
  %.05.i.i.i.i = phi ptr [ %9, %_ZSt8_DestroyIN4llvm7GCPointEEvPT_.exit.i.i.i.i ], [ %3, %1 ]
  %6 = getelementptr inbounds nuw i8, ptr %.05.i.i.i.i, i64 8
  %7 = load ptr, ptr %6, align 8
  %.not.i.i.i.i.i.i.i.i.i.i = icmp eq ptr %7, null
  br i1 %.not.i.i.i.i.i.i.i.i.i.i, label %_ZSt8_DestroyIN4llvm7GCPointEEvPT_.exit.i.i.i.i, label %8

8:                                                ; preds = %.lr.ph.i.i.i.i
  tail call void @_ZN4llvm16MetadataTracking7untrackEPvRNS_8MetadataE(ptr noundef nonnull align 8 dereferenceable(8) %6, ptr noundef nonnull align 4 dereferenceable(8) %7) #15
  br label %_ZSt8_DestroyIN4llvm7GCPointEEvPT_.exit.i.i.i.i

_ZSt8_DestroyIN4llvm7GCPointEEvPT_.exit.i.i.i.i:  ; preds = %8, %.lr.ph.i.i.i.i
  %9 = getelementptr inbounds nuw i8, ptr %.05.i.i.i.i, i64 16
  %.not.i.i.i.i = icmp eq ptr %9, %5
  br i1 %.not.i.i.i.i, label %_ZSt8_DestroyIPN4llvm7GCPointES1_EvT_S3_RSaIT0_E.exitthread-pre-split.i, label %.lr.ph.i.i.i.i, !llvm.loop !4

_ZSt8_DestroyIPN4llvm7GCPointES1_EvT_S3_RSaIT0_E.exitthread-pre-split.i: ; preds = %_ZSt8_DestroyIN4llvm7GCPointEEvPT_.exit.i.i.i.i
  %.pr.i = load ptr, ptr %2, align 8
  br label %_ZSt8_DestroyIPN4llvm7GCPointES1_EvT_S3_RSaIT0_E.exit.i

_ZSt8_DestroyIPN4llvm7GCPointES1_EvT_S3_RSaIT0_E.exit.i: ; preds = %_ZSt8_DestroyIPN4llvm7GCPointES1_EvT_S3_RSaIT0_E.exitthread-pre-split.i, %1
  %10 = phi ptr [ %.pr.i, %_ZSt8_DestroyIPN4llvm7GCPointES1_EvT_S3_RSaIT0_E.exitthread-pre-split.i ], [ %3, %1 ]
  %.not.i.i.i = icmp eq ptr %10, null
  br i1 %.not.i.i.i, label %_ZNSt6vectorIN4llvm7GCPointESaIS1_EED2Ev.exit, label %11

11:                                               ; preds = %_ZSt8_DestroyIPN4llvm7GCPointES1_EvT_S3_RSaIT0_E.exit.i
  %12 = getelementptr inbounds nuw i8, ptr %0, i64 64
  %13 = load ptr, ptr %12, align 8
  %14 = ptrtoint ptr %13 to i64
  %15 = ptrtoint ptr %10 to i64
  %16 = sub i64 %14, %15
  tail call void @_ZdlPvm(ptr noundef nonnull %10, i64 noundef %16) #18
  br label %_ZNSt6vectorIN4llvm7GCPointESaIS1_EED2Ev.exit

_ZNSt6vectorIN4llvm7GCPointESaIS1_EED2Ev.exit:    ; preds = %_ZSt8_DestroyIPN4llvm7GCPointES1_EvT_S3_RSaIT0_E.exit.i, %11
  %17 = getelementptr inbounds nuw i8, ptr %0, i64 24
  %18 = load ptr, ptr %17, align 8
  %.not.i.i.i1 = icmp eq ptr %18, null
  br i1 %.not.i.i.i1, label %_ZNSt6vectorIN4llvm6GCRootESaIS1_EED2Ev.exit, label %19

19:                                               ; preds = %_ZNSt6vectorIN4llvm7GCPointESaIS1_EED2Ev.exit
  %20 = getelementptr inbounds nuw i8, ptr %0, i64 40
  %21 = load ptr, ptr %20, align 8
  %22 = ptrtoint ptr %21 to i64
  %23 = ptrtoint ptr %18 to i64
  %24 = sub i64 %22, %23
  tail call void @_ZdlPvm(ptr noundef nonnull %18, i64 noundef %24) #18
  br label %_ZNSt6vectorIN4llvm6GCRootESaIS1_EED2Ev.exit

_ZNSt6vectorIN4llvm6GCRootESaIS1_EED2Ev.exit:     ; preds = %_ZNSt6vectorIN4llvm7GCPointESaIS1_EED2Ev.exit, %19
  ret void
}